Certificate:
    Data:
        Version: 3 (0x2)
        Serial Number: 1 (0x1)
        Signature Algorithm: sha256WithRSAEncryption
        Issuer: C=US, O=Google, OU=Enterprise, CN=Enterprise Root CA
        Validity
            Not Before: May 26 22:56:25 2022 GMT
            Not After : May 25 22:56:25 2032 GMT
        Subject: C=US, O=Google, OU=Enterprise, CN=Enterprise Root CA
        Subject Public Key Info:
            Public Key Algorithm: rsaEncryption
                RSA Public-Key: (2048 bit)
                Modulus:
                    00:d0:f9:ba:50:1d:a2:50:5a:08:14:a0:f5:d5:7f:
                    fe:f1:a8:bb:0e:3c:7e:43:f3:73:03:53:c9:75:75:
                    a9:80:19:ee:f2:85:9a:78:95:e5:39:84:2e:8a:52:
                    cf:21:a8:0f:4d:43:ae:d6:50:43:a6:cd:2d:34:0f:
                    4d:43:7e:c2:87:b0:9a:3d:99:bb:9f:68:73:77:8a:
                    3e:25:20:33:2a:24:93:a0:39:3b:dd:cf:77:04:7c:
                    01:61:ab:6b:32:12:3a:a4:d6:08:44:c0:62:61:67:
                    6b:5d:87:42:ce:47:02:d4:61:fa:17:81:8b:34:c3:
                    a9:ba:fb:ec:f6:92:f2:d9:e0:6d:04:82:b6:aa:b2:
                    6a:63:7c:55:c1:44:33:7f:3a:c0:5d:cb:af:23:99:
                    90:52:f4:b1:68:fc:a6:6e:d0:a1:f7:fd:92:80:8a:
                    1d:fd:48:53:4e:b4:a3:71:f6:05:ef:17:b3:c9:f8:
                    a3:a7:58:40:23:b9:7a:50:24:33:41:17:b4:bd:58:
                    10:c4:05:a2:11:fa:a7:58:e4:1e:68:1b:3c:e4:70:
                    6b:8e:95:66:ea:51:67:c0:5c:cc:9b:ed:6a:d6:38:
                    33:1f:f0:54:bc:24:75:53:00:dd:1e:2d:59:a7:3f:
                    42:1b:ab:3b:ed:93:8f:28:73:b3:60:4e:0d:b8:3b:
                    96:73
                Exponent: 65537 (0x10001)
        X509v3 extensions:
            X509v3 Key Usage: critical
                Certificate Sign, CRL Sign
            X509v3 Basic Constraints: critical
                CA:TRUE
            X509v3 Subject Key Identifier: 
                BB:B4:65:25:4E:B3:09:69:F7:26:99:9C:05:A8:6A:B9:92:D0:F8:65
            X509v3 Authority Key Identifier: 
                keyid:BB:B4:65:25:4E:B3:09:69:F7:26:99:9C:05:A8:6A:B9:92:D0:F8:65

    Signature Algorithm: sha256WithRSAEncryption
         9c:4e:63:5a:75:c8:6b:a8:46:24:aa:c8:51:51:e1:0b:17:49:
         e0:20:e9:6b:22:a2:50:b8:63:3e:2a:51:4d:9c:73:3a:56:e1:
         24:73:3f:79:87:c7:f1:5b:5b:1d:12:e4:66:b1:bf:bb:7b:a2:
         19:68:a7:2e:58:97:58:74:7d:70:1f:81:46:07:55:38:c7:9e:
         84:33:0a:3f:aa:34:5a:80:02:52:9c:8b:b1:b8:8f:29:d4:d4:
         11:7c:d7:83:83:30:2f:0b:f6:de:f7:f6:c5:6b:e9:e1:3a:2e:
         b0:b0:3c:fb:ea:c8:93:5a:9e:15:6d:0d:48:05:06:cd:87:ec:
         b0:aa:41:3f:60:5d:25:55:dc:bd:e0:04:a5:fc:26:6e:74:13:
         67:43:b3:71:e0:38:44:57:6e:e2:13:19:84:ec:17:80:ad:96:
         66:1e:1f:32:1c:91:06:1e:bb:b9:e1:61:91:51:06:37:85:14:
         54:03:f8:af:fa:49:12:d7:f8:94:b1:38:eb:cc:8f:74:3f:b0:
         d3:23:34:c4:35:40:6f:d0:eb:33:2a:f7:87:81:70:c4:76:a5:
         65:d8:0e:79:14:aa:01:30:8a:dc:62:af:e6:5c:26:af:f3:4f:
         76:0f:dc:3d:d1:b9:a7:f9:5f:59:00:02:c2:2e:3b:5e:01:a2:
         e7:d9:d8:23
-----BEGIN CERTIFICATE-----
MIIDfjCCAmagAwIBAgIBATANBgkqhkiG9w0BAQsFADBQMQswCQYDVQQGEwJVUzEP
MA0GA1UECgwGR29vZ2xlMRMwEQYDVQQLDApFbnRlcnByaXNlMRswGQYDVQQDDBJF
bnRlcnByaXNlIFJvb3QgQ0EwHhcNMjIwNTI2MjI1NjI1WhcNMzIwNTI1MjI1NjI1
WjBQMQswCQYDVQQGEwJVUzEPMA0GA1UECgwGR29vZ2xlMRMwEQYDVQQLDApFbnRl
cnByaXNlMRswGQYDVQQDDBJFbnRlcnByaXNlIFJvb3QgQ0EwggEiMA0GCSqGSIb3
DQEBAQUAA4IBDwAwggEKAoIBAQDQ+bpQHaJQWggUoPXVf/7xqLsOPH5D83MDU8l1
damAGe7yhZp4leU5hC6KUs8hqA9NQ67WUEOmzS00D01DfsKHsJo9mbufaHN3ij4l
IDMqJJOgOTvdz3cEfAFhq2syEjqk1ghEwGJhZ2tdh0LORwLUYfoXgYs0w6m6++z2
kvLZ4G0EgraqsmpjfFXBRDN/OsBdy68jmZBS9LFo/KZu0KH3/ZKAih39SFNOtKNx
9gXvF7PJ+KOnWEAjuXpQJDNBF7S9WBDEBaIR+qdY5B5oGzzkcGuOlWbqUWfAXMyb
7WrWODMf8FS8JHVTAN0eLVmnP0Ibqzvtk48oc7NgTg24O5ZzAgMBAAGjYzBhMA4G
A1UdDwEB/wQEAwIBBjAPBgNVHRMBAf8EBTADAQH/MB0GA1UdDgQWBBS7tGUlTrMJ
afcmmZwFqGq5ktD4ZTAfBgNVHSMEGDAWgBS7tGUlTrMJafcmmZwFqGq5ktD4ZTAN
BgkqhkiG9w0BAQsFAAOCAQEAnE5jWnXIa6hGJKrIUVHhCxdJ4CDpayKiULhjPipR
TZxzOlbhJHM/eYfH8VtbHRLkZrG/u3uiGWinLliXWHR9cB+BRgdVOMeehDMKP6o0
WoACUpyLsbiPKdTUEXzXg4MwLwv23vf2xWvp4TousLA8++rIk1qeFW0NSAUGzYfs
sKpBP2BdJVXcveAEpfwmbnQTZ0OzceA4RFdu4hMZhOwXgK2WZh4fMhyRBh67ueFh
kVEGN4UUVAP4r/pJEtf4lLE468yPdD+w0yM0xDVAb9DrMyr3h4FwxHalZdgOeRSq
ATCK3GKv5lwmr/NPdg/cPdG5p/lfWQACwi47XgGi59nYIw==
-----END CERTIFICATE-----
